target datalayout = "e-m:e-p270:32:32-p271:32:32-p272:64:64-i64:64-i128:128-f80:128-n8:16:32:64-S128"
target triple = "x86_64-pc-linux-gnu"

%struct.UStringPrepKey = type { ptr, ptr }
%union.UElement = type { ptr }

; Function Attrs: mustprogress uwtable
define internal noundef signext i8 @_ZL14compareEntries8UElementS_(ptr %0, ptr %1) #0 {
  %3 = alloca %union.UElement, align 8
  %4 = alloca %union.UElement, align 8
  %5 = alloca ptr, align 8
  %6 = alloca ptr, align 8
  %7 = alloca %union.UElement, align 8
  %8 = alloca %union.UElement, align 8
  %9 = alloca %union.UElement, align 8
  %10 = alloca %union.UElement, align 8
  %11 = alloca %union.UElement, align 8
  %12 = alloca %union.UElement, align 8
  %13 = alloca %union.UElement, align 8
  %14 = alloca %union.UElement, align 8
  %15 = getelementptr inbounds nuw %union.UElement, ptr %3, i32 0, i32 0
  store ptr %0, ptr %15, align 8
  %16 = getelementptr inbounds nuw %union.UElement, ptr %4, i32 0, i32 0
  store ptr %1, ptr %16, align 8
  call void @llvm.lifetime.start.p0(i64 8, ptr %5) #13
  %17 = load ptr, ptr %3, align 8, !tbaa !43
  store ptr %17, ptr %5, align 8, !tbaa !89
  call void @llvm.lifetime.start.p0(i64 8, ptr %6) #13
  %18 = load ptr, ptr %4, align 8, !tbaa !43
  store ptr %18, ptr %6, align 8, !tbaa !89
  call void @llvm.lifetime.start.p0(i64 8, ptr %7) #13
  call void @llvm.lifetime.start.p0(i64 8, ptr %8) #13
  call void @llvm.lifetime.start.p0(i64 8, ptr %9) #13
  call void @llvm.lifetime.start.p0(i64 8, ptr %10) #13
  %19 = load ptr, ptr %5, align 8, !tbaa !89
  %20 = getelementptr inbounds nuw %struct.UStringPrepKey, ptr %19, i32 0, i32 0
  %21 = load ptr, ptr %20, align 8, !tbaa !13
  store ptr %21, ptr %7, align 8, !tbaa !43
  %22 = load ptr, ptr %6, align 8, !tbaa !89
  %23 = getelementptr inbounds nuw %struct.UStringPrepKey, ptr %22, i32 0, i32 0
  %24 = load ptr, ptr %23, align 8, !tbaa !13
  store ptr %24, ptr %8, align 8, !tbaa !43
  %25 = load ptr, ptr %5, align 8, !tbaa !89
  %26 = getelementptr inbounds nuw %struct.UStringPrepKey, ptr %25, i32 0, i32 1
  %27 = load ptr, ptr %26, align 8, !tbaa !15
  store ptr %27, ptr %9, align 8, !tbaa !43
  %28 = load ptr, ptr %6, align 8, !tbaa !89
  %29 = getelementptr inbounds nuw %struct.UStringPrepKey, ptr %28, i32 0, i32 1
  %30 = load ptr, ptr %29, align 8, !tbaa !15
  store ptr %30, ptr %10, align 8, !tbaa !43
  call void @llvm.memcpy.p0.p0.i64(ptr align 8 %11, ptr align 8 %7, i64 8, i1 false), !tbaa.struct !115
  call void @llvm.memcpy.p0.p0.i64(ptr align 8 %12, ptr align 8 %8, i64 8, i1 false), !tbaa.struct !115
  %31 = getelementptr inbounds nuw %union.UElement, ptr %11, i32 0, i32 0
  %32 = load ptr, ptr %31, align 8
  %33 = getelementptr inbounds nuw %union.UElement, ptr %12, i32 0, i32 0
  %34 = load ptr, ptr %33, align 8
  %35 = call signext i8 @uhash_compareChars_77(ptr %32, ptr %34)
  %36 = icmp ne i8 %35, 0
  br i1 %36, label %37, label %44

37:                                               ; preds = %2
  call void @llvm.memcpy.p0.p0.i64(ptr align 8 %13, ptr align 8 %9, i64 8, i1 false), !tbaa.struct !115
  call void @llvm.memcpy.p0.p0.i64(ptr align 8 %14, ptr align 8 %10, i64 8, i1 false), !tbaa.struct !115
  %38 = getelementptr inbounds nuw %union.UElement, ptr %13, i32 0, i32 0
  %39 = load ptr, ptr %38, align 8
  %40 = getelementptr inbounds nuw %union.UElement, ptr %14, i32 0, i32 0
  %41 = load ptr, ptr %40, align 8
  %42 = call signext i8 @uhash_compareChars_77(ptr %39, ptr %41)
  %43 = icmp ne i8 %42, 0
  br label %44

44:                                               ; preds = %37, %2
  %45 = phi i1 [ false, %2 ], [ %43, %37 ]
  %46 = zext i1 %45 to i8
  call void @llvm.lifetime.end.p0(i64 8, ptr %10) #13
  call void @llvm.lifetime.end.p0(i64 8, ptr %9) #13
  call void @llvm.lifetime.end.p0(i64 8, ptr %8) #13
  call void @llvm.lifetime.end.p0(i64 8, ptr %7) #13
  call void @llvm.lifetime.end.p0(i64 8, ptr %6) #13
  call void @llvm.lifetime.end.p0(i64 8, ptr %5) #13
  ret i8 %46
}