; Function Attrs: mustprogress uwtable
define internal noundef signext range(i8 0, 2) i8 @_ZL14compareEntries8UElementS_(ptr readonly captures(none) %0, ptr readonly captures(none) %1) #0 {
  %3 = load ptr, ptr %0, align 8, !tbaa !12
  %4 = load ptr, ptr %1, align 8, !tbaa !12
  %5 = getelementptr inbounds nuw i8, ptr %0, i64 8
  %6 = load ptr, ptr %5, align 8, !tbaa !16
  %7 = getelementptr inbounds nuw i8, ptr %1, i64 8
  %8 = load ptr, ptr %7, align 8, !tbaa !16
  %9 = tail call signext i8 @uhash_compareChars_77(ptr %3, ptr %4)
  %.not = icmp eq i8 %9, 0
  br i1 %.not, label %14, label %10

10:                                               ; preds = %2
  %11 = tail call signext i8 @uhash_compareChars_77(ptr %6, ptr %8)
  %12 = icmp ne i8 %11, 0
  %13 = zext i1 %12 to i8
  br label %14

14:                                               ; preds = %10, %2
  %15 = phi i8 [ 0, %2 ], [ %13, %10 ]
  ret i8 %15
}